; Function Attrs: mustprogress uwtable
define internal noundef zeroext i1 @_ZN32pxrInternal_v0_24__pxrReserved__12_GLOBAL__N_120Js_PolymorphicWriterIN12_GLOBAL__N_110_WriterFixIN3pxr9rapidjson12PrettyWriterINS5_19BasicOStreamWrapperISoEENS5_4UTF8IcEESA_NS5_12CrtAllocatorELj0EEEEEE6DoubleEd(ptr noundef nonnull align 8 dereferenceable(80) %0, double noundef %1) unnamed_addr #3 align 2 {
  %3 = alloca [32 x i8], align 16
  %4 = getelementptr inbounds nuw i8, ptr %0, i64 8
  call void @llvm.lifetime.start.p0(i64 32, ptr nonnull %3)
  %5 = call noundef zeroext i1 @_ZN32pxrInternal_v0_24__pxrReserved__16TfDoubleToStringEdPcib(double noundef %1, ptr noundef nonnull %3, i32 noundef 32, i1 noundef zeroext true)
  %6 = call i64 @strlen(ptr noundef nonnull dereferenceable(1) %3) #28
  call void @_ZN3pxr9rapidjson12PrettyWriterINS0_19BasicOStreamWrapperISoEENS0_4UTF8IcEES5_NS0_12CrtAllocatorELj0EE12PrettyPrefixENS0_4TypeE(ptr noundef nonnull align 8 dereferenceable(72) %4, i32 noundef 6)
  %.not.i.i.i = icmp eq i64 %6, 0
  br i1 %.not.i.i.i, label %_ZN3pxr9rapidjson6WriterINS0_19BasicOStreamWrapperISoEENS0_4UTF8IcEES5_NS0_12CrtAllocatorELj0EE13WriteRawValueEPKcm.exit.i.i, label %.lr.ph.i.i.preheader.i

.lr.ph.i.i.preheader.i:                           ; preds = %2
  %7 = getelementptr i8, ptr %3, i64 %6
  %scevgep.i = getelementptr i8, ptr %7, i64 -1
  br label %.lr.ph.i.i.i

.lr.ph.i.i.i:                                     ; preds = %.lr.ph.i.i.i, %.lr.ph.i.i.preheader.i
  %.sroa.0.07.i.i.i = phi ptr [ %9, %.lr.ph.i.i.i ], [ %3, %.lr.ph.i.i.preheader.i ]
  %8 = load ptr, ptr %4, align 8
  %9 = getelementptr inbounds nuw i8, ptr %.sroa.0.07.i.i.i, i64 1
  %10 = load i8, ptr %.sroa.0.07.i.i.i, align 1
  %11 = load ptr, ptr %8, align 8
  %12 = call noundef nonnull align 8 dereferenceable(8) ptr @_ZNSo3putEc(ptr noundef nonnull align 8 dereferenceable(8) %11, i8 noundef signext %10)
  %exitcond.not.i = icmp eq ptr %.sroa.0.07.i.i.i, %scevgep.i
  br i1 %exitcond.not.i, label %_ZN3pxr9rapidjson6WriterINS0_19BasicOStreamWrapperISoEENS0_4UTF8IcEES5_NS0_12CrtAllocatorELj0EE13WriteRawValueEPKcm.exit.i.i, label %.lr.ph.i.i.i

_ZN3pxr9rapidjson6WriterINS0_19BasicOStreamWrapperISoEENS0_4UTF8IcEES5_NS0_12CrtAllocatorELj0EE13WriteRawValueEPKcm.exit.i.i: ; preds = %.lr.ph.i.i.i, %2
  %13 = getelementptr inbounds nuw i8, ptr %0, i64 40
  %14 = load ptr, ptr %13, align 8
  %15 = getelementptr inbounds nuw i8, ptr %0, i64 32
  %16 = load ptr, ptr %15, align 8
  %17 = icmp eq ptr %14, %16
  br i1 %17, label %18, label %_ZN12_GLOBAL__N_110_WriterFixIN3pxr9rapidjson12PrettyWriterINS2_19BasicOStreamWrapperISoEENS2_4UTF8IcEES7_NS2_12CrtAllocatorELj0EEEE6DoubleEd.exit

18:                                               ; preds = %_ZN3pxr9rapidjson6WriterINS0_19BasicOStreamWrapperISoEENS0_4UTF8IcEES5_NS0_12CrtAllocatorELj0EE13WriteRawValueEPKcm.exit.i.i
  %19 = load ptr, ptr %4, align 8
  %20 = load ptr, ptr %19, align 8
  %21 = call noundef nonnull align 8 dereferenceable(8) ptr @_ZNSo5flushEv(ptr noundef nonnull align 8 dereferenceable(8) %20)
  br label %_ZN12_GLOBAL__N_110_WriterFixIN3pxr9rapidjson12PrettyWriterINS2_19BasicOStreamWrapperISoEENS2_4UTF8IcEES7_NS2_12CrtAllocatorELj0EEEE6DoubleEd.exit

_ZN12_GLOBAL__N_110_WriterFixIN3pxr9rapidjson12PrettyWriterINS2_19BasicOStreamWrapperISoEENS2_4UTF8IcEES7_NS2_12CrtAllocatorELj0EEEE6DoubleEd.exit: ; preds = %_ZN3pxr9rapidjson6WriterINS0_19BasicOStreamWrapperISoEENS0_4UTF8IcEES5_NS0_12CrtAllocatorELj0EE13WriteRawValueEPKcm.exit.i.i, %18
  call void @llvm.lifetime.end.p0(i64 32, ptr nonnull %3)
  ret i1 true
}